target datalayout = "e-m:e-p270:32:32-p271:32:32-p272:64:64-i64:64-i128:128-f80:128-n8:16:32:64-S128"
target triple = "x86_64-pc-linux-gnu"

%struct.tr2_tgt = type { ptr, ptr, ptr, ptr, ptr, ptr, ptr, ptr, ptr, ptr, ptr, ptr, ptr, ptr, ptr, ptr, ptr, ptr, ptr, ptr, ptr, ptr, ptr, ptr, ptr, ptr, ptr, ptr, ptr, ptr }

@trace2_enabled = internal global i32 0, align 4
@tr2_tgt_builtins = internal global [4 x ptr] [ptr @tr2_tgt_normal, ptr @tr2_tgt_perf, ptr @tr2_tgt_event, ptr null], align 16
@.str.1 = private unnamed_addr constant [9 x i8] c"trace2.c\00", align 1
@trace2_cmd_list_config_fl.emitted = internal global i32 0, align 4
@trace2_cmd_list_env_vars_fl.emitted = internal global i32 0, align 4

; Function Attrs: nounwind uwtable
define dso_local void @trace2_cmd_list_env_vars_fl(ptr noundef %0, i32 noundef %1) #0 {
  %3 = alloca ptr, align 8
  %4 = alloca i32, align 4
  store ptr %0, ptr %3, align 8, !tbaa !4
  store i32 %1, ptr %4, align 4, !tbaa !9
  %5 = load i32, ptr @trace2_enabled, align 4, !tbaa !9
  %6 = icmp ne i32 %5, 0
  br i1 %6, label %8, label %7

7:                                                ; preds = %2
  br label %15

8:                                                ; preds = %2
  %9 = load i32, ptr @trace2_cmd_list_env_vars_fl.emitted, align 4, !tbaa !9
  %10 = icmp ne i32 %9, 0
  br i1 %10, label %11, label %12

11:                                               ; preds = %8
  br label %15

12:                                               ; preds = %8
  store i32 1, ptr @trace2_cmd_list_env_vars_fl.emitted, align 4, !tbaa !9
  %13 = load ptr, ptr %3, align 8, !tbaa !4
  %14 = load i32, ptr %4, align 4, !tbaa !9
  call void @tr2_list_env_vars_fl(ptr noundef %13, i32 noundef %14)
  br label %15

15:                                               ; preds = %12, %11, %7
  ret void
}

; Function Attrs: nounwind uwtable
define dso_local void @trace2_cmd_list_config_fl(ptr noundef %0, i32 noundef %1) #0 {
  %3 = alloca ptr, align 8
  %4 = alloca i32, align 4
  store ptr %0, ptr %3, align 8, !tbaa !4
  store i32 %1, ptr %4, align 4, !tbaa !9
  %5 = load i32, ptr @trace2_enabled, align 4, !tbaa !9
  %6 = icmp ne i32 %5, 0
  br i1 %6, label %8, label %7

7:                                                ; preds = %2
  br label %15

8:                                                ; preds = %2
  %9 = load i32, ptr @trace2_cmd_list_config_fl.emitted, align 4, !tbaa !9
  %10 = icmp ne i32 %9, 0
  br i1 %10, label %11, label %12

11:                                               ; preds = %8
  br label %15

12:                                               ; preds = %8
  store i32 1, ptr @trace2_cmd_list_config_fl.emitted, align 4, !tbaa !9
  %13 = load ptr, ptr %3, align 8, !tbaa !4
  %14 = load i32, ptr %4, align 4, !tbaa !9
  call void @tr2_cfg_list_config_fl(ptr noundef %13, i32 noundef %14)
  br label %15

15:                                               ; preds = %12, %11, %7
  ret void
}

; Function Attrs: nounwind uwtable
define dso_local void @trace2_cmd_name_fl(ptr noundef %0, i32 noundef %1, ptr noundef %2) #0 {
  %4 = alloca ptr, align 8
  %5 = alloca i32, align 4
  %6 = alloca ptr, align 8
  %7 = alloca ptr, align 8
  %8 = alloca ptr, align 8
  %9 = alloca i32, align 4
  %10 = alloca i32, align 4
  store ptr %0, ptr %4, align 8, !tbaa !4
  store i32 %1, ptr %5, align 4, !tbaa !9
  store ptr %2, ptr %6, align 8, !tbaa !4
  call void @llvm.lifetime.start.p0(i64 8, ptr %7) #9
  call void @llvm.lifetime.start.p0(i64 8, ptr %8) #9
  call void @llvm.lifetime.start.p0(i64 4, ptr %9) #9
  %11 = load i32, ptr @trace2_enabled, align 4, !tbaa !9
  %12 = icmp ne i32 %11, 0
  br i1 %12, label %14, label %13

13:                                               ; preds = %3
  store i32 1, ptr %10, align 4
  br label %53

14:                                               ; preds = %3
  %15 = load ptr, ptr %6, align 8, !tbaa !4
  call void @tr2_cmd_name_append_hierarchy(ptr noundef %15)
  %16 = call ptr @tr2_cmd_name_get_hierarchy()
  store ptr %16, ptr %8, align 8, !tbaa !4
  store i32 0, ptr %9, align 4, !tbaa !9
  %17 = load i32, ptr %9, align 4, !tbaa !9
  %18 = sext i32 %17 to i64
  %19 = getelementptr inbounds [4 x ptr], ptr @tr2_tgt_builtins, i64 0, i64 %18
  %20 = load ptr, ptr %19, align 8, !tbaa !11
  store ptr %20, ptr %7, align 8, !tbaa !11
  br label %21

21:                                               ; preds = %45, %14
  %22 = load ptr, ptr %7, align 8, !tbaa !11
  %23 = icmp ne ptr %22, null
  br i1 %23, label %24, label %52

24:                                               ; preds = %21
  %25 = load ptr, ptr %7, align 8, !tbaa !11
  %26 = getelementptr inbounds nuw %struct.tr2_tgt, ptr %25, i32 0, i32 0
  %27 = load ptr, ptr %26, align 8, !tbaa !13
  %28 = call i32 @tr2_dst_trace_want(ptr noundef %27)
  %29 = icmp ne i32 %28, 0
  br i1 %29, label %30, label %44

30:                                               ; preds = %24
  %31 = load ptr, ptr %7, align 8, !tbaa !11
  %32 = getelementptr inbounds nuw %struct.tr2_tgt, ptr %31, i32 0, i32 11
  %33 = load ptr, ptr %32, align 8, !tbaa !46
  %34 = icmp ne ptr %33, null
  br i1 %34, label %35, label %43

35:                                               ; preds = %30
  %36 = load ptr, ptr %7, align 8, !tbaa !11
  %37 = getelementptr inbounds nuw %struct.tr2_tgt, ptr %36, i32 0, i32 11
  %38 = load ptr, ptr %37, align 8, !tbaa !46
  %39 = load ptr, ptr %4, align 8, !tbaa !4
  %40 = load i32, ptr %5, align 4, !tbaa !9
  %41 = load ptr, ptr %6, align 8, !tbaa !4
  %42 = load ptr, ptr %8, align 8, !tbaa !4
  call void %38(ptr noundef %39, i32 noundef %40, ptr noundef %41, ptr noundef %42)
  br label %43

43:                                               ; preds = %35, %30
  br label %44

44:                                               ; preds = %43, %24
  br label %45

45:                                               ; preds = %44
  %46 = load i32, ptr %9, align 4, !tbaa !9
  %47 = add nsw i32 %46, 1
  store i32 %47, ptr %9, align 4, !tbaa !9
  %48 = load i32, ptr %9, align 4, !tbaa !9
  %49 = sext i32 %48 to i64
  %50 = getelementptr inbounds [4 x ptr], ptr @tr2_tgt_builtins, i64 0, i64 %49
  %51 = load ptr, ptr %50, align 8, !tbaa !11
  store ptr %51, ptr %7, align 8, !tbaa !11
  br label %21, !llvm.loop !47

52:                                               ; preds = %21
  call void @trace2_cmd_list_config_fl(ptr noundef @.str.1, i32 noundef 439)
  call void @trace2_cmd_list_env_vars_fl(ptr noundef @.str.1, i32 noundef 440)
  store i32 0, ptr %10, align 4
  br label %53

53:                                               ; preds = %52, %13
  call void @llvm.lifetime.end.p0(i64 4, ptr %9) #9
  call void @llvm.lifetime.end.p0(i64 8, ptr %8) #9
  call void @llvm.lifetime.end.p0(i64 8, ptr %7) #9
  %54 = load i32, ptr %10, align 4
  switch i32 %54, label %56 [
    i32 0, label %55
    i32 1, label %55
  ]

55:                                               ; preds = %53, %53
  ret void

56:                                               ; preds = %53
  unreachable
}