; Function Attrs: nounwind uwtable
define dso_local void @trace2_cmd_name_fl(ptr noundef %0, i32 noundef %1, ptr noundef %2) local_unnamed_addr #0 {
  %.b = load i1, ptr @trace2_enabled, align 4
  br i1 %.b, label %4, label %trace2_cmd_list_env_vars_fl.exit

4:                                                ; preds = %3
  tail call void @tr2_cmd_name_append_hierarchy(ptr noundef %2) #11
  %5 = tail call ptr @tr2_cmd_name_get_hierarchy() #11
  br label %6

6:                                                ; preds = %4, %13
  %indvars.iv = phi i64 [ 0, %4 ], [ %indvars.iv.next, %13 ]
  %.01118 = phi ptr [ @tr2_tgt_normal, %4 ], [ %15, %13 ]
  %7 = load ptr, ptr %.01118, align 8, !tbaa !14
  %8 = tail call i32 @tr2_dst_trace_want(ptr noundef %7) #11
  %.not13 = icmp eq i32 %8, 0
  br i1 %.not13, label %13, label %9

9:                                                ; preds = %6
  %10 = getelementptr inbounds nuw i8, ptr %.01118, i64 88
  %11 = load ptr, ptr %10, align 8, !tbaa !44
  %.not14 = icmp eq ptr %11, null
  br i1 %.not14, label %13, label %12

12:                                               ; preds = %9
  tail call void %11(ptr noundef %0, i32 noundef %1, ptr noundef %2, ptr noundef %5) #11
  br label %13

13:                                               ; preds = %6, %12, %9
  %indvars.iv.next = add nuw nsw i64 %indvars.iv, 1
  %14 = getelementptr inbounds nuw [4 x ptr], ptr @tr2_tgt_builtins, i64 0, i64 %indvars.iv.next
  %15 = load ptr, ptr %14, align 8, !tbaa !10
  %.not = icmp eq i64 %indvars.iv.next, 3
  br i1 %.not, label %16, label %6, !llvm.loop !45

16:                                               ; preds = %13
  %.b.i = load i1, ptr @trace2_enabled, align 4
  %17 = xor i1 %.b.i, true
  %.b2.i = load i1, ptr @trace2_cmd_list_config_fl.emitted, align 4
  %or.cond.i = select i1 %17, i1 true, i1 %.b2.i
  br i1 %or.cond.i, label %trace2_cmd_list_config_fl.exit, label %18

18:                                               ; preds = %16
  store i1 true, ptr @trace2_cmd_list_config_fl.emitted, align 4
  tail call void @tr2_cfg_list_config_fl(ptr noundef nonnull @.str.1, i32 noundef 439) #11
  %.b.i15.pre = load i1, ptr @trace2_enabled, align 4
  br label %trace2_cmd_list_config_fl.exit

trace2_cmd_list_config_fl.exit:                   ; preds = %16, %18
  %.b.i15 = phi i1 [ %.b.i, %16 ], [ %.b.i15.pre, %18 ]
  %19 = xor i1 %.b.i15, true
  %.b2.i16 = load i1, ptr @trace2_cmd_list_env_vars_fl.emitted, align 4
  %or.cond.i17 = select i1 %19, i1 true, i1 %.b2.i16
  br i1 %or.cond.i17, label %trace2_cmd_list_env_vars_fl.exit, label %20

20:                                               ; preds = %trace2_cmd_list_config_fl.exit
  store i1 true, ptr @trace2_cmd_list_env_vars_fl.emitted, align 4
  tail call void @tr2_list_env_vars_fl(ptr noundef nonnull @.str.1, i32 noundef 440) #11
  br label %trace2_cmd_list_env_vars_fl.exit

trace2_cmd_list_env_vars_fl.exit:                 ; preds = %20, %trace2_cmd_list_config_fl.exit, %3
  ret void
}